target datalayout = "e-m:e-p270:32:32-p271:32:32-p272:64:64-i64:64-i128:128-f80:128-n8:16:32:64-S128"
target triple = "x86_64-pc-linux-gnu"

%struct.t_inputrec = type { i32, i32, i64, i32, i64, i32, i32, i32, i32, i32, i32, i32, i32, i32, i32, i32, double, double, i8, %"class.std::vector", float, float, float, i32, i32, i32, i32, float, float, i32, float, i32, i32, i8, i8, i32, float, i32, i32, i8, %struct.PressureCouplingOptions, %"class.std::vector.3", %"class.std::vector.3", i32, float, float, float, float, i32, i32, float, float, float, float, i8, i32, i32, float, float, i32, float, float, i32, %"class.std::unique_ptr", i8, %"class.std::unique_ptr.10", i8, %"class.std::unique_ptr.18", i32, float, i32, i8, i32, float, float, float, i32, float, float, i32, float, i32, i32, i32, i32, float, i32, i8, float, i64, i32, i32, float, [2 x i32], [2 x float], float, i8, %"class.std::unique_ptr.26", i8, %"class.std::unique_ptr.34", i8, %"class.std::unique_ptr.42", i32, ptr, i8, ptr, float, [3 x [3 x float]], i32, i32, i32, i32, float, float, float, float, %struct.t_grpopts, i8, i8, i8, i8, ptr, %"class.std::unique_ptr.50" }
%"class.std::vector" = type { %"struct.std::_Vector_base" }
%"struct.std::_Vector_base" = type { %"struct.std::_Vector_base<gmx::MtsLevel, std::allocator<gmx::MtsLevel>>::_Vector_impl" }
%"struct.std::_Vector_base<gmx::MtsLevel, std::allocator<gmx::MtsLevel>>::_Vector_impl" = type { %"struct.std::_Vector_base<gmx::MtsLevel, std::allocator<gmx::MtsLevel>>::_Vector_impl_data" }
%"struct.std::_Vector_base<gmx::MtsLevel, std::allocator<gmx::MtsLevel>>::_Vector_impl_data" = type { ptr, ptr, ptr }
%struct.PressureCouplingOptions = type { i32, i32, i32, float, [3 x [3 x float]], [3 x [3 x float]], i32 }
%"class.std::vector.3" = type { %"struct.std::_Vector_base.4" }
%"struct.std::_Vector_base.4" = type { %"struct.std::_Vector_base<gmx::BasicVector<float>, std::allocator<gmx::BasicVector<float>>>::_Vector_impl" }
%"struct.std::_Vector_base<gmx::BasicVector<float>, std::allocator<gmx::BasicVector<float>>>::_Vector_impl" = type { %"struct.std::_Vector_base<gmx::BasicVector<float>, std::allocator<gmx::BasicVector<float>>>::_Vector_impl_data" }
%"struct.std::_Vector_base<gmx::BasicVector<float>, std::allocator<gmx::BasicVector<float>>>::_Vector_impl_data" = type { ptr, ptr, ptr }
%"class.std::unique_ptr" = type { %"struct.std::__uniq_ptr_data" }
%"struct.std::__uniq_ptr_data" = type { %"class.std::__uniq_ptr_impl" }
%"class.std::__uniq_ptr_impl" = type { %"class.std::tuple" }
%"class.std::tuple" = type { %"struct.std::_Tuple_impl" }
%"struct.std::_Tuple_impl" = type { %"struct.std::_Head_base.9" }
%"struct.std::_Head_base.9" = type { ptr }
%"class.std::unique_ptr.10" = type { %"struct.std::__uniq_ptr_data.11" }
%"struct.std::__uniq_ptr_data.11" = type { %"class.std::__uniq_ptr_impl.12" }
%"class.std::__uniq_ptr_impl.12" = type { %"class.std::tuple.13" }
%"class.std::tuple.13" = type { %"struct.std::_Tuple_impl.14" }
%"struct.std::_Tuple_impl.14" = type { %"struct.std::_Head_base.17" }
%"struct.std::_Head_base.17" = type { ptr }
%"class.std::unique_ptr.18" = type { %"struct.std::__uniq_ptr_data.19" }
%"struct.std::__uniq_ptr_data.19" = type { %"class.std::__uniq_ptr_impl.20" }
%"class.std::__uniq_ptr_impl.20" = type { %"class.std::tuple.21" }
%"class.std::tuple.21" = type { %"struct.std::_Tuple_impl.22" }
%"struct.std::_Tuple_impl.22" = type { %"struct.std::_Head_base.25" }
%"struct.std::_Head_base.25" = type { ptr }
%"class.std::unique_ptr.26" = type { %"struct.std::__uniq_ptr_data.27" }
%"struct.std::__uniq_ptr_data.27" = type { %"class.std::__uniq_ptr_impl.28" }
%"class.std::__uniq_ptr_impl.28" = type { %"class.std::tuple.29" }
%"class.std::tuple.29" = type { %"struct.std::_Tuple_impl.30" }
%"struct.std::_Tuple_impl.30" = type { %"struct.std::_Head_base.33" }
%"struct.std::_Head_base.33" = type { ptr }
%"class.std::unique_ptr.34" = type { %"struct.std::__uniq_ptr_data.35" }
%"struct.std::__uniq_ptr_data.35" = type { %"class.std::__uniq_ptr_impl.36" }
%"class.std::__uniq_ptr_impl.36" = type { %"class.std::tuple.37" }
%"class.std::tuple.37" = type { %"struct.std::_Tuple_impl.38" }
%"struct.std::_Tuple_impl.38" = type { %"struct.std::_Head_base.41" }
%"struct.std::_Head_base.41" = type { ptr }
%"class.std::unique_ptr.42" = type { %"struct.std::__uniq_ptr_data.43" }
%"struct.std::__uniq_ptr_data.43" = type { %"class.std::__uniq_ptr_impl.44" }
%"class.std::__uniq_ptr_impl.44" = type { %"class.std::tuple.45" }
%"class.std::tuple.45" = type { %"struct.std::_Tuple_impl.46" }
%"struct.std::_Tuple_impl.46" = type { %"struct.std::_Head_base.49" }
%"struct.std::_Head_base.49" = type { ptr }
%struct.t_grpopts = type <{ i32, i32, i32, i32, i32, [4 x i8], ptr, ptr, ptr, ptr, ptr, ptr, ptr, ptr, ptr, ptr, i32, [4 x i8] }>
%"class.std::unique_ptr.50" = type { %"struct.std::__uniq_ptr_data.51" }
%"struct.std::__uniq_ptr_data.51" = type { %"class.std::__uniq_ptr_impl.52" }
%"class.std::__uniq_ptr_impl.52" = type { %"class.std::tuple.53" }
%"class.std::tuple.53" = type { %"struct.std::_Tuple_impl.54" }
%"struct.std::_Tuple_impl.54" = type { %"struct.std::_Head_base.57" }
%"struct.std::_Head_base.57" = type { ptr }

; Function Attrs: inlinehint mustprogress nounwind uwtable
define internal noundef zeroext i1 @_ZL8usingPmeRK22CoulombInteractionType(ptr noundef nonnull align 4 dereferenceable(4) %0) #4 {
  %2 = alloca ptr, align 8
  store ptr %0, ptr %2, align 8, !tbaa !767
  %3 = load ptr, ptr %2, align 8, !tbaa !767
  %4 = load i32, ptr %3, align 4, !tbaa !997
  %5 = icmp eq i32 %4, 3
  br i1 %5, label %22, label %6

6:                                                ; preds = %1
  %7 = load ptr, ptr %2, align 8, !tbaa !767
  %8 = load i32, ptr %7, align 4, !tbaa !997
  %9 = icmp eq i32 %8, 14
  br i1 %9, label %22, label %10

10:                                               ; preds = %6
  %11 = load ptr, ptr %2, align 8, !tbaa !767
  %12 = load i32, ptr %11, align 4, !tbaa !997
  %13 = icmp eq i32 %12, 13
  br i1 %13, label %22, label %14

14:                                               ; preds = %10
  %15 = load ptr, ptr %2, align 8, !tbaa !767
  %16 = load i32, ptr %15, align 4, !tbaa !997
  %17 = icmp eq i32 %16, 15
  br i1 %17, label %22, label %18

18:                                               ; preds = %14
  %19 = load ptr, ptr %2, align 8, !tbaa !767
  %20 = load i32, ptr %19, align 4, !tbaa !997
  %21 = icmp eq i32 %20, 5
  br label %22

22:                                               ; preds = %18, %14, %10, %6, %1
  %23 = phi i1 [ true, %14 ], [ true, %10 ], [ true, %6 ], [ true, %1 ], [ %21, %18 ]
  ret i1 %23
}

; Function Attrs: mustprogress uwtable
define noundef zeroext i1 @_Z17inputrecNeedMutotPK10t_inputrec(ptr noundef %0) #3 {
  %2 = alloca ptr, align 8
  store ptr %0, ptr %2, align 8, !tbaa !34
  %3 = load ptr, ptr %2, align 8, !tbaa !34
  %4 = getelementptr inbounds nuw %struct.t_inputrec, ptr %3, i32 0, i32 48
  %5 = load i32, ptr %4, align 4, !tbaa !170
  %6 = icmp eq i32 %5, 4
  br i1 %6, label %11, label %7

7:                                                ; preds = %1
  %8 = load ptr, ptr %2, align 8, !tbaa !34
  %9 = getelementptr inbounds nuw %struct.t_inputrec, ptr %8, i32 0, i32 48
  %10 = call noundef zeroext i1 @_ZL8usingPmeRK22CoulombInteractionType(ptr noundef nonnull align 4 dereferenceable(4) %9)
  br i1 %10, label %11, label %23

11:                                               ; preds = %7, %1
  %12 = load ptr, ptr %2, align 8, !tbaa !34
  %13 = getelementptr inbounds nuw %struct.t_inputrec, ptr %12, i32 0, i32 29
  %14 = load i32, ptr %13, align 4, !tbaa !156
  %15 = icmp eq i32 %14, 1
  br i1 %15, label %21, label %16

16:                                               ; preds = %11
  %17 = load ptr, ptr %2, align 8, !tbaa !34
  %18 = getelementptr inbounds nuw %struct.t_inputrec, ptr %17, i32 0, i32 30
  %19 = load float, ptr %18, align 8, !tbaa !157
  %20 = fcmp une float %19, 0.000000e+00
  br label %21

21:                                               ; preds = %16, %11
  %22 = phi i1 [ true, %11 ], [ %20, %16 ]
  br label %23

23:                                               ; preds = %21, %7
  %24 = phi i1 [ false, %7 ], [ %22, %21 ]
  ret i1 %24
}