; Function Attrs: mustprogress nofree norecurse nosync nounwind willreturn memory(argmem: read) uwtable
define noundef zeroext i1 @_Z17inputrecNeedMutotPK10t_inputrec(ptr noundef readonly captures(none) %0) local_unnamed_addr #15 {
  %2 = getelementptr inbounds nuw i8, ptr %0, i64 364
  %3 = load i32, ptr %2, align 4, !tbaa !258
  switch i32 %3, label %_ZL8usingPmeRK22CoulombInteractionType.exit [
    i32 4, label %_ZL8usingPmeRK22CoulombInteractionType.exit.thread
    i32 3, label %_ZL8usingPmeRK22CoulombInteractionType.exit.thread
    i32 14, label %_ZL8usingPmeRK22CoulombInteractionType.exit.thread
    i32 13, label %_ZL8usingPmeRK22CoulombInteractionType.exit.thread
    i32 15, label %_ZL8usingPmeRK22CoulombInteractionType.exit.thread
    i32 5, label %_ZL8usingPmeRK22CoulombInteractionType.exit.thread
  ]

_ZL8usingPmeRK22CoulombInteractionType.exit.thread: ; preds = %1, %1, %1, %1, %1, %1
  %4 = getelementptr inbounds nuw i8, ptr %0, i64 164
  %5 = load i32, ptr %4, align 4, !tbaa !314
  %6 = icmp eq i32 %5, 1
  br i1 %6, label %_ZL8usingPmeRK22CoulombInteractionType.exit, label %7

7:                                                ; preds = %_ZL8usingPmeRK22CoulombInteractionType.exit.thread
  %8 = getelementptr inbounds nuw i8, ptr %0, i64 168
  %9 = load float, ptr %8, align 8, !tbaa !315
  %10 = fcmp une float %9, 0.000000e+00
  br label %_ZL8usingPmeRK22CoulombInteractionType.exit

_ZL8usingPmeRK22CoulombInteractionType.exit:      ; preds = %1, %_ZL8usingPmeRK22CoulombInteractionType.exit.thread, %7
  %11 = phi i1 [ true, %_ZL8usingPmeRK22CoulombInteractionType.exit.thread ], [ %10, %7 ], [ false, %1 ]
  ret i1 %11
}